; Function Attrs: mustprogress nounwind uwtable
define hidden noundef ptr @_ZN2os17pd_reserve_memoryEmb(i64 noundef %0, i1 noundef zeroext %1) local_unnamed_addr #0 align 2 {
  %3 = tail call ptr @mmap64(ptr noundef null, i64 noundef %0, i32 noundef 0, i32 noundef 16418, i32 noundef -1, i64 noundef 0) #26
  %4 = icmp eq ptr %3, inttoptr (i64 -1 to ptr)
  br i1 %4, label %5, label %_ZL9anon_mmapPcm.exit

5:                                                ; preds = %2
  %6 = tail call ptr @__errno_location() #28
  %7 = load i32, ptr %6, align 4
  %8 = load volatile ptr, ptr getelementptr inbounds (i8, ptr @_ZN16LogTagSetMappingILN6LogTag4typeE105ELS1_78ELS1_0ELS1_0ELS1_0ELS1_0EE7_tagsetE, i64 48), align 8
  %.not12.i = icmp eq ptr %8, null
  br i1 %.not12.i, label %11, label %9

9:                                                ; preds = %5
  %10 = tail call noundef ptr @_ZN2os8strerrorEi(i32 noundef %7) #26
  tail call void (ptr, ...) @_ZN7LogImplILN6LogTag4typeE105ELS1_78ELS1_0ELS1_0ELS1_0ELS1_0EE5writeILN8LogLevel4typeE1EEEvPKcz(ptr noundef nonnull @.str.185, i64 noundef 0, i64 noundef %0, i64 noundef %0, ptr noundef %10)
  br label %11

11:                                               ; preds = %9, %5
  store i32 %7, ptr %6, align 4
  br label %_ZL9anon_mmapPcm.exit

_ZL9anon_mmapPcm.exit:                            ; preds = %2, %11
  %.0.i = phi ptr [ null, %11 ], [ %3, %2 ]
  ret ptr %.0.i
}